; Function Attrs: mustprogress nounwind uwtable
define void @_ZN7testing18TestEventListenersD2Ev(ptr nocapture noundef nonnull readonly align 8 dereferenceable(24) %this) unnamed_addr #7 align 2 {
entry:
  %0 = load ptr, ptr %this, align 8
  %isnull = icmp eq ptr %0, null
  br i1 %isnull, label %delete.end, label %delete.notnull

delete.notnull:                                   ; preds = %entry
  %vtable = load ptr, ptr %0, align 8
  %vfn = getelementptr inbounds i8, ptr %vtable, i64 8
  %1 = load ptr, ptr %vfn, align 8
  tail call void %1(ptr noundef nonnull align 8 dereferenceable(40) %0) #47
  br label %delete.end

delete.end:                                       ; preds = %delete.notnull, %entry
  ret void
}